target datalayout = "e-m:e-p270:32:32-p271:32:32-p272:64:64-i64:64-i128:128-f80:128-n8:16:32:64-S128"
target triple = "x86_64-unknown-linux-gnu"

%"class.icu_75::LocaleMatcher::Builder" = type { i32, ptr, i32, i32, ptr, i8, i32, i32, ptr, ptr }

@_ZN6icu_7513LocaleMatcher7BuilderD1Ev = unnamed_addr alias void (ptr), ptr @_ZN6icu_7513LocaleMatcher7BuilderD2Ev

; Function Attrs: mustprogress nounwind uwtable
define noundef nonnull align 8 dereferenceable(64) ptr @_ZN6icu_7513LocaleMatcher7BuilderaSEOS1_(ptr noundef nonnull align 8 dereferenceable(64) %this, ptr noundef nonnull align 8 dereferenceable(64) %src) #0 align 2 {
entry:
  %this.addr = alloca ptr, align 8
  %src.addr = alloca ptr, align 8
  store ptr %this, ptr %this.addr, align 8
  store ptr %src, ptr %src.addr, align 8
  %this1 = load ptr, ptr %this.addr, align 8
  call void @_ZN6icu_7513LocaleMatcher7BuilderD1Ev(ptr noundef nonnull align 8 dereferenceable(64) %this1) #11
  %0 = load ptr, ptr %src.addr, align 8
  %errorCode_ = getelementptr inbounds %"class.icu_75::LocaleMatcher::Builder", ptr %0, i32 0, i32 0
  %1 = load i32, ptr %errorCode_, align 8
  %errorCode_2 = getelementptr inbounds %"class.icu_75::LocaleMatcher::Builder", ptr %this1, i32 0, i32 0
  store i32 %1, ptr %errorCode_2, align 8
  %2 = load ptr, ptr %src.addr, align 8
  %supportedLocales_ = getelementptr inbounds %"class.icu_75::LocaleMatcher::Builder", ptr %2, i32 0, i32 1
  %3 = load ptr, ptr %supportedLocales_, align 8
  %supportedLocales_3 = getelementptr inbounds %"class.icu_75::LocaleMatcher::Builder", ptr %this1, i32 0, i32 1
  store ptr %3, ptr %supportedLocales_3, align 8
  %4 = load ptr, ptr %src.addr, align 8
  %thresholdDistance_ = getelementptr inbounds %"class.icu_75::LocaleMatcher::Builder", ptr %4, i32 0, i32 2
  %5 = load i32, ptr %thresholdDistance_, align 8
  %thresholdDistance_4 = getelementptr inbounds %"class.icu_75::LocaleMatcher::Builder", ptr %this1, i32 0, i32 2
  store i32 %5, ptr %thresholdDistance_4, align 8
  %6 = load ptr, ptr %src.addr, align 8
  %demotion_ = getelementptr inbounds %"class.icu_75::LocaleMatcher::Builder", ptr %6, i32 0, i32 3
  %7 = load i32, ptr %demotion_, align 4
  %demotion_5 = getelementptr inbounds %"class.icu_75::LocaleMatcher::Builder", ptr %this1, i32 0, i32 3
  store i32 %7, ptr %demotion_5, align 4
  %8 = load ptr, ptr %src.addr, align 8
  %defaultLocale_ = getelementptr inbounds %"class.icu_75::LocaleMatcher::Builder", ptr %8, i32 0, i32 4
  %9 = load ptr, ptr %defaultLocale_, align 8
  %defaultLocale_6 = getelementptr inbounds %"class.icu_75::LocaleMatcher::Builder", ptr %this1, i32 0, i32 4
  store ptr %9, ptr %defaultLocale_6, align 8
  %10 = load ptr, ptr %src.addr, align 8
  %withDefault_ = getelementptr inbounds %"class.icu_75::LocaleMatcher::Builder", ptr %10, i32 0, i32 5
  %11 = load i8, ptr %withDefault_, align 8
  %tobool = trunc i8 %11 to i1
  %withDefault_7 = getelementptr inbounds %"class.icu_75::LocaleMatcher::Builder", ptr %this1, i32 0, i32 5
  %frombool = zext i1 %tobool to i8
  store i8 %frombool, ptr %withDefault_7, align 8
  %12 = load ptr, ptr %src.addr, align 8
  %favor_ = getelementptr inbounds %"class.icu_75::LocaleMatcher::Builder", ptr %12, i32 0, i32 6
  %13 = load i32, ptr %favor_, align 4
  %favor_8 = getelementptr inbounds %"class.icu_75::LocaleMatcher::Builder", ptr %this1, i32 0, i32 6
  store i32 %13, ptr %favor_8, align 4
  %14 = load ptr, ptr %src.addr, align 8
  %direction_ = getelementptr inbounds %"class.icu_75::LocaleMatcher::Builder", ptr %14, i32 0, i32 7
  %15 = load i32, ptr %direction_, align 8
  %direction_9 = getelementptr inbounds %"class.icu_75::LocaleMatcher::Builder", ptr %this1, i32 0, i32 7
  store i32 %15, ptr %direction_9, align 8
  %16 = load ptr, ptr %src.addr, align 8
  %supportedLocales_10 = getelementptr inbounds %"class.icu_75::LocaleMatcher::Builder", ptr %16, i32 0, i32 1
  store ptr null, ptr %supportedLocales_10, align 8
  %17 = load ptr, ptr %src.addr, align 8
  %defaultLocale_11 = getelementptr inbounds %"class.icu_75::LocaleMatcher::Builder", ptr %17, i32 0, i32 4
  store ptr null, ptr %defaultLocale_11, align 8
  ret ptr %this1
}