; Function Attrs: mustprogress nounwind uwtable
define noundef nonnull align 8 dereferenceable(64) ptr @_ZN6icu_7513LocaleMatcher7BuilderaSEOS1_(ptr noundef nonnull returned align 8 dereferenceable(64) %this, ptr nocapture noundef nonnull align 8 dereferenceable(64) %src) local_unnamed_addr #1 align 2 {
entry:
  tail call void @_ZN6icu_7513LocaleMatcher7BuilderD1Ev(ptr noundef nonnull align 8 dereferenceable(64) %this) #15
  %0 = load i32, ptr %src, align 8
  store i32 %0, ptr %this, align 8
  %supportedLocales_ = getelementptr inbounds i8, ptr %src, i64 8
  %1 = load ptr, ptr %supportedLocales_, align 8
  %supportedLocales_3 = getelementptr inbounds i8, ptr %this, i64 8
  store ptr %1, ptr %supportedLocales_3, align 8
  %thresholdDistance_ = getelementptr inbounds i8, ptr %src, i64 16
  %2 = load i32, ptr %thresholdDistance_, align 8
  %thresholdDistance_4 = getelementptr inbounds i8, ptr %this, i64 16
  store i32 %2, ptr %thresholdDistance_4, align 8
  %demotion_ = getelementptr inbounds i8, ptr %src, i64 20
  %3 = load i32, ptr %demotion_, align 4
  %demotion_5 = getelementptr inbounds i8, ptr %this, i64 20
  store i32 %3, ptr %demotion_5, align 4
  %defaultLocale_ = getelementptr inbounds i8, ptr %src, i64 24
  %4 = load ptr, ptr %defaultLocale_, align 8
  %defaultLocale_6 = getelementptr inbounds i8, ptr %this, i64 24
  store ptr %4, ptr %defaultLocale_6, align 8
  %withDefault_ = getelementptr inbounds i8, ptr %src, i64 32
  %5 = load i8, ptr %withDefault_, align 8
  %6 = and i8 %5, 1
  %withDefault_7 = getelementptr inbounds i8, ptr %this, i64 32
  store i8 %6, ptr %withDefault_7, align 8
  %favor_ = getelementptr inbounds i8, ptr %src, i64 36
  %7 = load i32, ptr %favor_, align 4
  %favor_8 = getelementptr inbounds i8, ptr %this, i64 36
  store i32 %7, ptr %favor_8, align 4
  %direction_ = getelementptr inbounds i8, ptr %src, i64 40
  %8 = load i32, ptr %direction_, align 8
  %direction_9 = getelementptr inbounds i8, ptr %this, i64 40
  store i32 %8, ptr %direction_9, align 8
  store ptr null, ptr %supportedLocales_, align 8
  store ptr null, ptr %defaultLocale_, align 8
  ret ptr %this
}